target datalayout = "e-m:e-p270:32:32-p271:32:32-p272:64:64-i64:64-i128:128-f80:128-n8:16:32:64-S128"
target triple = "x86_64-unknown-linux-gnu"

module asm ".section \22.export_symbol\22,\22a\22 ; __export_symbol_native_io_delay: ; .asciz \22\22 ; .asciz \22\22 ; .balign 8 ; .quad native_io_delay ; .previous"

%struct.dmi_system_id = type { ptr, ptr, [4 x %struct.dmi_strmatch], ptr }
%struct.dmi_strmatch = type { i8, [79 x i8] }
%struct.obs_kernel_param = type { ptr, ptr, i32 }

@io_delay_type = dso_local local_unnamed_addr global i32 0, section ".data..read_mostly", align 4
@__UNIQUE_ID___addressable_native_io_delay168 = internal global ptr @native_io_delay, section ".discard.addressable", align 8
@io_delay_override = internal unnamed_addr global i1 false, section ".init.data", align 4
@io_delay_0xed_port_dmi_table = internal constant [6 x %struct.dmi_system_id] [%struct.dmi_system_id { ptr @dmi_io_delay_0xed_port, ptr @.str, [4 x %struct.dmi_strmatch] [%struct.dmi_strmatch { i8 13, [79 x i8] c"Quanta\00\00\00\00\00\00\00\00\00\00\00\00\00\00\00\00\00\00\00\00\00\00\00\00\00\00\00\00\00\00\00\00\00\00\00\00\00\00\00\00\00\00\00\00\00\00\00\00\00\00\00\00\00\00\00\00\00\00\00\00\00\00\00\00\00\00\00\00\00\00\00\00\00" }, %struct.dmi_strmatch { i8 14, [79 x i8] c"30B7\00\00\00\00\00\00\00\00\00\00\00\00\00\00\00\00\00\00\00\00\00\00\00\00\00\00\00\00\00\00\00\00\00\00\00\00\00\00\00\00\00\00\00\00\00\00\00\00\00\00\00\00\00\00\00\00\00\00\00\00\00\00\00\00\00\00\00\00\00\00\00\00\00\00\00" }, %struct.dmi_strmatch zeroinitializer, %struct.dmi_strmatch zeroinitializer], ptr null }, %struct.dmi_system_id { ptr @dmi_io_delay_0xed_port, ptr @.str.1, [4 x %struct.dmi_strmatch] [%struct.dmi_strmatch { i8 13, [79 x i8] c"Quanta\00\00\00\00\00\00\00\00\00\00\00\00\00\00\00\00\00\00\00\00\00\00\00\00\00\00\00\00\00\00\00\00\00\00\00\00\00\00\00\00\00\00\00\00\00\00\00\00\00\00\00\00\00\00\00\00\00\00\00\00\00\00\00\00\00\00\00\00\00\00\00\00\00" }, %struct.dmi_strmatch { i8 14, [79 x i8] c"30B9\00\00\00\00\00\00\00\00\00\00\00\00\00\00\00\00\00\00\00\00\00\00\00\00\00\00\00\00\00\00\00\00\00\00\00\00\00\00\00\00\00\00\00\00\00\00\00\00\00\00\00\00\00\00\00\00\00\00\00\00\00\00\00\00\00\00\00\00\00\00\00\00\00\00\00" }, %struct.dmi_strmatch zeroinitializer, %struct.dmi_strmatch zeroinitializer], ptr null }, %struct.dmi_system_id { ptr @dmi_io_delay_0xed_port, ptr @.str.2, [4 x %struct.dmi_strmatch] [%struct.dmi_strmatch { i8 13, [79 x i8] c"Quanta\00\00\00\00\00\00\00\00\00\00\00\00\00\00\00\00\00\00\00\00\00\00\00\00\00\00\00\00\00\00\00\00\00\00\00\00\00\00\00\00\00\00\00\00\00\00\00\00\00\00\00\00\00\00\00\00\00\00\00\00\00\00\00\00\00\00\00\00\00\00\00\00\00" }, %struct.dmi_strmatch { i8 14, [79 x i8] c"30B8\00\00\00\00\00\00\00\00\00\00\00\00\00\00\00\00\00\00\00\00\00\00\00\00\00\00\00\00\00\00\00\00\00\00\00\00\00\00\00\00\00\00\00\00\00\00\00\00\00\00\00\00\00\00\00\00\00\00\00\00\00\00\00\00\00\00\00\00\00\00\00\00\00\00\00" }, %struct.dmi_strmatch zeroinitializer, %struct.dmi_strmatch zeroinitializer], ptr null }, %struct.dmi_system_id { ptr @dmi_io_delay_0xed_port, ptr @.str.3, [4 x %struct.dmi_strmatch] [%struct.dmi_strmatch { i8 13, [79 x i8] c"Quanta\00\00\00\00\00\00\00\00\00\00\00\00\00\00\00\00\00\00\00\00\00\00\00\00\00\00\00\00\00\00\00\00\00\00\00\00\00\00\00\00\00\00\00\00\00\00\00\00\00\00\00\00\00\00\00\00\00\00\00\00\00\00\00\00\00\00\00\00\00\00\00\00\00" }, %struct.dmi_strmatch { i8 14, [79 x i8] c"30BF\00\00\00\00\00\00\00\00\00\00\00\00\00\00\00\00\00\00\00\00\00\00\00\00\00\00\00\00\00\00\00\00\00\00\00\00\00\00\00\00\00\00\00\00\00\00\00\00\00\00\00\00\00\00\00\00\00\00\00\00\00\00\00\00\00\00\00\00\00\00\00\00\00\00\00" }, %struct.dmi_strmatch zeroinitializer, %struct.dmi_strmatch zeroinitializer], ptr null }, %struct.dmi_system_id { ptr @dmi_io_delay_0xed_port, ptr @.str.4, [4 x %struct.dmi_strmatch] [%struct.dmi_strmatch { i8 13, [79 x i8] c"Quanta\00\00\00\00\00\00\00\00\00\00\00\00\00\00\00\00\00\00\00\00\00\00\00\00\00\00\00\00\00\00\00\00\00\00\00\00\00\00\00\00\00\00\00\00\00\00\00\00\00\00\00\00\00\00\00\00\00\00\00\00\00\00\00\00\00\00\00\00\00\00\00\00\00" }, %struct.dmi_strmatch { i8 14, [79 x i8] c"30D3\00\00\00\00\00\00\00\00\00\00\00\00\00\00\00\00\00\00\00\00\00\00\00\00\00\00\00\00\00\00\00\00\00\00\00\00\00\00\00\00\00\00\00\00\00\00\00\00\00\00\00\00\00\00\00\00\00\00\00\00\00\00\00\00\00\00\00\00\00\00\00\00\00\00\00" }, %struct.dmi_strmatch zeroinitializer, %struct.dmi_strmatch zeroinitializer], ptr null }, %struct.dmi_system_id zeroinitializer], section ".init.rodata", align 16
@__setup_str_io_delay_param = internal constant [9 x i8] c"io_delay\00", section ".init.rodata", align 1
@__setup_io_delay_param = internal global %struct.obs_kernel_param { ptr @__setup_str_io_delay_param, ptr @io_delay_param, i32 1 }, section ".init.setup", align 8
@.str = private unnamed_addr constant [22 x i8] c"Compaq Presario V6000\00", align 1
@.str.1 = private unnamed_addr constant [20 x i8] c"HP Pavilion dv9000z\00", align 1
@.str.2 = private unnamed_addr constant [19 x i8] c"HP Pavilion dv6000\00", align 1
@.str.3 = private unnamed_addr constant [19 x i8] c"HP Pavilion tx1000\00", align 1
@.str.4 = private unnamed_addr constant [14 x i8] c"Presario F700\00", align 1
@.str.5 = private unnamed_addr constant [33 x i8] c"\015%s: using 0xed I/O delay port\0A\00", align 1
@.str.6 = private unnamed_addr constant [5 x i8] c"0x80\00", align 1
@.str.7 = private unnamed_addr constant [5 x i8] c"0xed\00", align 1
@.str.8 = private unnamed_addr constant [7 x i8] c"udelay\00", align 1
@.str.9 = private unnamed_addr constant [5 x i8] c"none\00", align 1
@llvm.compiler.used = appending global [2 x ptr] [ptr @__UNIQUE_ID___addressable_native_io_delay168, ptr @__setup_io_delay_param], section "llvm.metadata"

; Function Attrs: fn_ret_thunk_extern nounwind null_pointer_is_valid
define dso_local void @native_io_delay() #0 align 16 {
  %1 = load i32, ptr @io_delay_type, align 4
  switch i32 %1, label %2 [
    i32 3, label %5
    i32 1, label %3
    i32 2, label %4
  ]

2:                                                ; preds = %0
  tail call void asm sideeffect "outb %al, $$0x80", "~{dirflag},~{fpsr},~{flags}"() #6, !srcloc !5
  br label %5

3:                                                ; preds = %0
  tail call void asm sideeffect "outb %al, $$0xed", "~{dirflag},~{fpsr},~{flags}"() #6, !srcloc !6
  br label %5

4:                                                ; preds = %0
  tail call void @__const_udelay(i64 noundef 8590) #6
  br label %5

5:                                                ; preds = %4, %3, %2, %0
  ret void
}

; Function Attrs: null_pointer_is_valid
declare dso_local void @__const_udelay(i64 noundef) local_unnamed_addr #1

; Function Attrs: cold fn_ret_thunk_extern nounwind null_pointer_is_valid optsize
define dso_local void @io_delay_init() local_unnamed_addr #2 section ".init.text" align 16 {
  %1 = load i1, ptr @io_delay_override, align 4
  br i1 %1, label %4, label %2

2:                                                ; preds = %0
  %3 = tail call i32 @dmi_check_system(ptr noundef nonnull @io_delay_0xed_port_dmi_table) #6
  br label %4

4:                                                ; preds = %2, %0
  ret void
}

; Function Attrs: null_pointer_is_valid
declare dso_local i32 @dmi_check_system(ptr noundef) local_unnamed_addr #1

; Function Attrs: cold fn_ret_thunk_extern mustprogress nofree nounwind null_pointer_is_valid optsize willreturn memory(write, argmem: read, inaccessiblemem: none)
define internal noundef i32 @io_delay_param(ptr noundef readonly %0) #3 section ".init.text" align 16 {
  %2 = icmp eq ptr %0, null
  br i1 %2, label %17, label %3

3:                                                ; preds = %1
  %4 = tail call i32 @strcmp(ptr noundef nonnull dereferenceable(1) %0, ptr noundef nonnull dereferenceable(5) @.str.6) #6
  %5 = icmp eq i32 %4, 0
  br i1 %5, label %15, label %6

6:                                                ; preds = %3
  %7 = tail call i32 @strcmp(ptr noundef nonnull dereferenceable(1) %0, ptr noundef nonnull dereferenceable(5) @.str.7) #6
  %8 = icmp eq i32 %7, 0
  br i1 %8, label %15, label %9

9:                                                ; preds = %6
  %10 = tail call i32 @strcmp(ptr noundef nonnull dereferenceable(1) %0, ptr noundef nonnull dereferenceable(7) @.str.8) #6
  %11 = icmp eq i32 %10, 0
  br i1 %11, label %15, label %12

12:                                               ; preds = %9
  %13 = tail call i32 @strcmp(ptr noundef nonnull dereferenceable(1) %0, ptr noundef nonnull dereferenceable(5) @.str.9) #6
  %14 = icmp eq i32 %13, 0
  br i1 %14, label %15, label %17

15:                                               ; preds = %12, %9, %6, %3
  %16 = phi i32 [ 0, %3 ], [ 1, %6 ], [ 2, %9 ], [ 3, %12 ]
  store i32 %16, ptr @io_delay_type, align 4
  store i1 true, ptr @io_delay_override, align 4
  br label %17

17:                                               ; preds = %15, %12, %1
  %18 = phi i32 [ 0, %15 ], [ -22, %1 ], [ -22, %12 ]
  ret i32 %18
}

; Function Attrs: cold fn_ret_thunk_extern nounwind null_pointer_is_valid optsize
define internal noundef i32 @dmi_io_delay_0xed_port(ptr nocapture noundef readonly %0) #2 section ".init.text" align 16 {
  %2 = load i32, ptr @io_delay_type, align 4
  %3 = icmp eq i32 %2, 0
  br i1 %3, label %4, label %8

4:                                                ; preds = %1
  %5 = getelementptr inbounds i8, ptr %0, i64 8
  %6 = load ptr, ptr %5, align 8
  %7 = tail call i32 (ptr, ...) @_printk(ptr noundef nonnull @.str.5, ptr noundef %6) #7
  store i32 1, ptr @io_delay_type, align 4
  br label %8

8:                                                ; preds = %4, %1
  ret i32 0
}

; Function Attrs: cold null_pointer_is_valid
declare dso_local i32 @_printk(ptr noundef, ...) local_unnamed_addr #4

; Function Attrs: mustprogress nofree nounwind null_pointer_is_valid willreturn memory(argmem: read)
declare dso_local i32 @strcmp(ptr nocapture noundef, ptr nocapture noundef) local_unnamed_addr #5


!llvm.module.flags = !{!0, !1, !2, !3, !4}

!0 = !{i32 1, !"wchar_size", i32 2}
!1 = !{i32 8, !"cf-protection-branch", i32 1}
!2 = !{i32 4, !"function_return_thunk_extern", i32 1}
!3 = !{i32 4, !"indirect_branch_cs_prefix", i32 1}
!4 = !{i32 4, !"SkipRaxSetup", i32 1}
!5 = !{i64 1148}
!6 = !{i64 1219}
